main.T.M1 STEXT size=16 args=0x18 locals=0x0 funcid=0x0 align=0x0 leaf
	0x0000 00000 (/Users/andyron/myfield/github/LearnGo/Go语言第一课/gofirst/ch29/boxing/interface_internal.go:8)	TEXT	main.T.M1(SB), LEAF|NOFRAME|ABIInternal, $0-24
	0x0000 00000 (/Users/andyron/myfield/github/LearnGo/Go语言第一课/gofirst/ch29/boxing/interface_internal.go:8)	FUNCDATA	$0, gclocals·EaPwxsZ75yY1hHMVZLmk6g==(SB)
	0x0000 00000 (/Users/andyron/myfield/github/LearnGo/Go语言第一课/gofirst/ch29/boxing/interface_internal.go:8)	FUNCDATA	$1, gclocals·g2BeySu+wFnoycgXfElmcg==(SB)
	0x0000 00000 (/Users/andyron/myfield/github/LearnGo/Go语言第一课/gofirst/ch29/boxing/interface_internal.go:8)	FUNCDATA	$5, main.T.M1.arginfo1(SB)
	0x0000 00000 (/Users/andyron/myfield/github/LearnGo/Go语言第一课/gofirst/ch29/boxing/interface_internal.go:8)	FUNCDATA	$6, main.T.M1.argliveinfo(SB)
	0x0000 00000 (/Users/andyron/myfield/github/LearnGo/Go语言第一课/gofirst/ch29/boxing/interface_internal.go:8)	PCDATA	$3, $1
	0x0000 00000 (/Users/andyron/myfield/github/LearnGo/Go语言第一课/gofirst/ch29/boxing/interface_internal.go:8)	RET	(R30)
	0x0000 c0 03 5f d6 00 00 00 00 00 00 00 00 00 00 00 00  .._.............
main.T.M2 STEXT size=16 args=0x18 locals=0x0 funcid=0x0 align=0x0 leaf
	0x0000 00000 (/Users/andyron/myfield/github/LearnGo/Go语言第一课/gofirst/ch29/boxing/interface_internal.go:9)	TEXT	main.T.M2(SB), LEAF|NOFRAME|ABIInternal, $0-24
	0x0000 00000 (/Users/andyron/myfield/github/LearnGo/Go语言第一课/gofirst/ch29/boxing/interface_internal.go:9)	FUNCDATA	$0, gclocals·EaPwxsZ75yY1hHMVZLmk6g==(SB)
	0x0000 00000 (/Users/andyron/myfield/github/LearnGo/Go语言第一课/gofirst/ch29/boxing/interface_internal.go:9)	FUNCDATA	$1, gclocals·g2BeySu+wFnoycgXfElmcg==(SB)
	0x0000 00000 (/Users/andyron/myfield/github/LearnGo/Go语言第一课/gofirst/ch29/boxing/interface_internal.go:9)	FUNCDATA	$5, main.T.M2.arginfo1(SB)
	0x0000 00000 (/Users/andyron/myfield/github/LearnGo/Go语言第一课/gofirst/ch29/boxing/interface_internal.go:9)	FUNCDATA	$6, main.T.M2.argliveinfo(SB)
	0x0000 00000 (/Users/andyron/myfield/github/LearnGo/Go语言第一课/gofirst/ch29/boxing/interface_internal.go:9)	PCDATA	$3, $1
	0x0000 00000 (/Users/andyron/myfield/github/LearnGo/Go语言第一课/gofirst/ch29/boxing/interface_internal.go:9)	RET	(R30)
	0x0000 c0 03 5f d6 00 00 00 00 00 00 00 00 00 00 00 00  .._.............
main.main STEXT size=144 args=0x0 locals=0x48 funcid=0x0 align=0x0
	0x0000 00000 (/Users/andyron/myfield/github/LearnGo/Go语言第一课/gofirst/ch29/boxing/interface_internal.go:16)	TEXT	main.main(SB), ABIInternal, $80-0
	0x0000 00000 (/Users/andyron/myfield/github/LearnGo/Go语言第一课/gofirst/ch29/boxing/interface_internal.go:16)	MOVD	16(g), R16
	0x0004 00004 (/Users/andyron/myfield/github/LearnGo/Go语言第一课/gofirst/ch29/boxing/interface_internal.go:16)	PCDATA	$0, $-2
	0x0004 00004 (/Users/andyron/myfield/github/LearnGo/Go语言第一课/gofirst/ch29/boxing/interface_internal.go:16)	CMP	R16, RSP
	0x0008 00008 (/Users/andyron/myfield/github/LearnGo/Go语言第一课/gofirst/ch29/boxing/interface_internal.go:16)	BLS	124
	0x000c 00012 (/Users/andyron/myfield/github/LearnGo/Go语言第一课/gofirst/ch29/boxing/interface_internal.go:16)	PCDATA	$0, $-1
	0x000c 00012 (/Users/andyron/myfield/github/LearnGo/Go语言第一课/gofirst/ch29/boxing/interface_internal.go:16)	MOVD.W	R30, -80(RSP)
	0x0010 00016 (/Users/andyron/myfield/github/LearnGo/Go语言第一课/gofirst/ch29/boxing/interface_internal.go:16)	MOVD	R29, -8(RSP)
	0x0014 00020 (/Users/andyron/myfield/github/LearnGo/Go语言第一课/gofirst/ch29/boxing/interface_internal.go:16)	SUB	$8, RSP, R29
	0x0018 00024 (/Users/andyron/myfield/github/LearnGo/Go语言第一课/gofirst/ch29/boxing/interface_internal.go:16)	FUNCDATA	$0, gclocals·ykHN0vawYuq1dUW4zEe2gA==(SB)
	0x0018 00024 (/Users/andyron/myfield/github/LearnGo/Go语言第一课/gofirst/ch29/boxing/interface_internal.go:16)	FUNCDATA	$1, gclocals·AkNoL2tlDE0VXXcCR4/jMQ==(SB)
	0x0018 00024 (/Users/andyron/myfield/github/LearnGo/Go语言第一课/gofirst/ch29/boxing/interface_internal.go:16)	FUNCDATA	$2, main.main.stkobj(SB)
	0x0018 00024 (/Users/andyron/myfield/github/LearnGo/Go语言第一课/gofirst/ch29/boxing/interface_internal.go:26)	MOVD	$17, R0
	0x001c 00028 (/Users/andyron/myfield/github/LearnGo/Go语言第一课/gofirst/ch29/boxing/interface_internal.go:22)	MOVD	R0, main..autotmp_4-24(SP)
	0x0020 00032 (/Users/andyron/myfield/github/LearnGo/Go语言第一课/gofirst/ch29/boxing/interface_internal.go:22)	MOVD	$go:string."hello, interface"(SB), R1
	0x0028 00040 (/Users/andyron/myfield/github/LearnGo/Go语言第一课/gofirst/ch29/boxing/interface_internal.go:22)	MOVD	R1, main..autotmp_4-16(SP)
	0x002c 00044 (/Users/andyron/myfield/github/LearnGo/Go语言第一课/gofirst/ch29/boxing/interface_internal.go:22)	MOVD	$16, R2
	0x0030 00048 (/Users/andyron/myfield/github/LearnGo/Go语言第一课/gofirst/ch29/boxing/interface_internal.go:22)	MOVD	R2, main..autotmp_4-8(SP)
	0x0034 00052 (/Users/andyron/myfield/github/LearnGo/Go语言第一课/gofirst/ch29/boxing/interface_internal.go:25)	MOVD	R0, main..autotmp_5-48(SP)
	0x0038 00056 (/Users/andyron/myfield/github/LearnGo/Go语言第一课/gofirst/ch29/boxing/interface_internal.go:25)	MOVD	R1, main..autotmp_5-40(SP)
	0x003c 00060 (/Users/andyron/myfield/github/LearnGo/Go语言第一课/gofirst/ch29/boxing/interface_internal.go:25)	MOVD	R2, main..autotmp_5-32(SP)
	0x0040 00064 (/Users/andyron/myfield/github/LearnGo/Go语言第一课/gofirst/ch29/boxing/interface_internal.go:26)	PCDATA	$1, $1
	0x0040 00064 (/Users/andyron/myfield/github/LearnGo/Go语言第一课/gofirst/ch29/boxing/interface_internal.go:26)	CALL	runtime.printlock(SB)
	0x0044 00068 (/Users/andyron/myfield/github/LearnGo/Go语言第一课/gofirst/ch29/boxing/interface_internal.go:26)	MOVD	$type:<unlinkable>.T(SB), R0
	0x004c 00076 (/Users/andyron/myfield/github/LearnGo/Go语言第一课/gofirst/ch29/boxing/interface_internal.go:26)	MOVD	$main..autotmp_4-24(SP), R1
	0x0050 00080 (/Users/andyron/myfield/github/LearnGo/Go语言第一课/gofirst/ch29/boxing/interface_internal.go:26)	PCDATA	$1, $2
	0x0050 00080 (/Users/andyron/myfield/github/LearnGo/Go语言第一课/gofirst/ch29/boxing/interface_internal.go:26)	CALL	runtime.printeface(SB)
	0x0054 00084 (/Users/andyron/myfield/github/LearnGo/Go语言第一课/gofirst/ch29/boxing/interface_internal.go:26)	CALL	runtime.printsp(SB)
	0x0058 00088 (/Users/andyron/myfield/github/LearnGo/Go语言第一课/gofirst/ch29/boxing/interface_internal.go:26)	MOVD	$go:itab.<unlinkable>.T,<unlinkable>.NonEmptyInterface(SB), R0
	0x0060 00096 (/Users/andyron/myfield/github/LearnGo/Go语言第一课/gofirst/ch29/boxing/interface_internal.go:26)	MOVD	$main..autotmp_5-48(SP), R1
	0x0064 00100 (/Users/andyron/myfield/github/LearnGo/Go语言第一课/gofirst/ch29/boxing/interface_internal.go:26)	PCDATA	$1, $0
	0x0064 00100 (/Users/andyron/myfield/github/LearnGo/Go语言第一课/gofirst/ch29/boxing/interface_internal.go:26)	CALL	runtime.printiface(SB)
	0x0068 00104 (/Users/andyron/myfield/github/LearnGo/Go语言第一课/gofirst/ch29/boxing/interface_internal.go:26)	CALL	runtime.printnl(SB)
	0x006c 00108 (/Users/andyron/myfield/github/LearnGo/Go语言第一课/gofirst/ch29/boxing/interface_internal.go:26)	CALL	runtime.printunlock(SB)
	0x0070 00112 (/Users/andyron/myfield/github/LearnGo/Go语言第一课/gofirst/ch29/boxing/interface_internal.go:29)	LDP	-8(RSP), (R29, R30)
	0x0074 00116 (/Users/andyron/myfield/github/LearnGo/Go语言第一课/gofirst/ch29/boxing/interface_internal.go:29)	ADD	$80, RSP
	0x0078 00120 (/Users/andyron/myfield/github/LearnGo/Go语言第一课/gofirst/ch29/boxing/interface_internal.go:29)	RET	(R30)
	0x007c 00124 (/Users/andyron/myfield/github/LearnGo/Go语言第一课/gofirst/ch29/boxing/interface_internal.go:29)	NOP
	0x007c 00124 (/Users/andyron/myfield/github/LearnGo/Go语言第一课/gofirst/ch29/boxing/interface_internal.go:16)	PCDATA	$1, $-1
	0x007c 00124 (/Users/andyron/myfield/github/LearnGo/Go语言第一课/gofirst/ch29/boxing/interface_internal.go:16)	PCDATA	$0, $-2
	0x007c 00124 (/Users/andyron/myfield/github/LearnGo/Go语言第一课/gofirst/ch29/boxing/interface_internal.go:16)	MOVD	R30, R3
	0x0080 00128 (/Users/andyron/myfield/github/LearnGo/Go语言第一课/gofirst/ch29/boxing/interface_internal.go:16)	CALL	runtime.morestack_noctxt(SB)
	0x0084 00132 (/Users/andyron/myfield/github/LearnGo/Go语言第一课/gofirst/ch29/boxing/interface_internal.go:16)	PCDATA	$0, $-1
	0x0084 00132 (/Users/andyron/myfield/github/LearnGo/Go语言第一课/gofirst/ch29/boxing/interface_internal.go:16)	JMP	0
	0x0000 90 0b 40 f9 ff 63 30 eb a9 03 00 54 fe 0f 1b f8  ..@..c0....T....
	0x0010 fd 83 1f f8 fd 23 00 d1 20 02 80 d2 e0 1b 00 f9  .....#.. .......
	0x0020 01 00 00 90 21 00 00 91 e1 1f 00 f9 e2 03 7c b2  ....!.........|.
	0x0030 e2 23 00 f9 e0 0f 00 f9 e1 13 00 f9 e2 17 00 f9  .#..............
	0x0040 00 00 00 94 00 00 00 90 00 00 00 91 e1 c3 00 91  ................
	0x0050 00 00 00 94 00 00 00 94 00 00 00 90 00 00 00 91  ................
	0x0060 e1 63 00 91 00 00 00 94 00 00 00 94 00 00 00 94  .c..............
	0x0070 fd fb 7f a9 ff 43 01 91 c0 03 5f d6 e3 03 1e aa  .....C...._.....
	0x0080 00 00 00 94 df ff ff 17 00 00 00 00 00 00 00 00  ................
	rel 0+0 t=R_USEIFACE type:main.T+0
	rel 0+0 t=R_USEIFACE type:main.T+0
	rel 32+8 t=R_ADDRARM64 go:string."hello, interface"+0
	rel 64+4 t=R_CALLARM64 runtime.printlock+0
	rel 68+8 t=R_ADDRARM64 type:<unlinkable>.T+0
	rel 80+4 t=R_CALLARM64 runtime.printeface+0
	rel 84+4 t=R_CALLARM64 runtime.printsp+0
	rel 88+8 t=R_ADDRARM64 go:itab.<unlinkable>.T,<unlinkable>.NonEmptyInterface+0
	rel 100+4 t=R_CALLARM64 runtime.printiface+0
	rel 104+4 t=R_CALLARM64 runtime.printnl+0
	rel 108+4 t=R_CALLARM64 runtime.printunlock+0
	rel 128+4 t=R_CALLARM64 runtime.morestack_noctxt+0
type:.eq.<unlinkable>.T STEXT dupok size=128 args=0x10 locals=0x28 funcid=0x0 align=0x0
	0x0000 00000 (<autogenerated>:1)	TEXT	type:.eq.<unlinkable>.T(SB), DUPOK|ABIInternal, $48-16
	0x0000 00000 (<autogenerated>:1)	MOVD	16(g), R16
	0x0004 00004 (<autogenerated>:1)	PCDATA	$0, $-2
	0x0004 00004 (<autogenerated>:1)	CMP	R16, RSP
	0x0008 00008 (<autogenerated>:1)	BLS	88
	0x000c 00012 (<autogenerated>:1)	PCDATA	$0, $-1
	0x000c 00012 (<autogenerated>:1)	MOVD.W	R30, -48(RSP)
	0x0010 00016 (<autogenerated>:1)	MOVD	R29, -8(RSP)
	0x0014 00020 (<autogenerated>:1)	SUB	$8, RSP, R29
	0x0018 00024 (<autogenerated>:1)	FUNCDATA	$0, gclocals·TjPuuCwdlCpTaRQGRKTrYw==(SB)
	0x0018 00024 (<autogenerated>:1)	FUNCDATA	$1, gclocals·J5F+7Qw7O7ve2QcWC7DpeQ==(SB)
	0x0018 00024 (<autogenerated>:1)	FUNCDATA	$5, type:.eq.<unlinkable>.T.arginfo1(SB)
	0x0018 00024 (<autogenerated>:1)	FUNCDATA	$6, type:.eq.<unlinkable>.T.argliveinfo(SB)
	0x0018 00024 (<autogenerated>:1)	PCDATA	$3, $1
	0x0018 00024 (<autogenerated>:1)	MOVD	(R1), R3
	0x001c 00028 (<autogenerated>:1)	MOVD	(R0), R4
	0x0020 00032 (<autogenerated>:1)	CMP	R4, R3
	0x0024 00036 (<autogenerated>:1)	BNE	72
	0x0028 00040 (<autogenerated>:1)	MOVD	16(R0), R2
	0x002c 00044 (<autogenerated>:1)	MOVD	16(R1), R3
	0x0030 00048 (<autogenerated>:1)	CMP	R2, R3
	0x0034 00052 (<autogenerated>:1)	BNE	72
	0x0038 00056 (<autogenerated>:1)	MOVD	8(R0), R0
	0x003c 00060 (<autogenerated>:1)	MOVD	8(R1), R1
	0x0040 00064 (<autogenerated>:1)	PCDATA	$1, $1
	0x0040 00064 (<autogenerated>:1)	CALL	runtime.memequal(SB)
	0x0044 00068 (<autogenerated>:1)	JMP	76
	0x0048 00072 (<autogenerated>:1)	MOVD	ZR, R0
	0x004c 00076 (<autogenerated>:1)	LDP	-8(RSP), (R29, R30)
	0x0050 00080 (<autogenerated>:1)	ADD	$48, RSP
	0x0054 00084 (<autogenerated>:1)	RET	(R30)
	0x0058 00088 (<autogenerated>:1)	NOP
	0x0058 00088 (<autogenerated>:1)	PCDATA	$1, $-1
	0x0058 00088 (<autogenerated>:1)	PCDATA	$0, $-2
	0x0058 00088 (<autogenerated>:1)	MOVD	R0, 8(RSP)
	0x005c 00092 (<autogenerated>:1)	MOVD	R1, 16(RSP)
	0x0060 00096 (<autogenerated>:1)	MOVD	R30, R3
	0x0064 00100 (<autogenerated>:1)	CALL	runtime.morestack_noctxt(SB)
	0x0068 00104 (<autogenerated>:1)	PCDATA	$0, $-1
	0x0068 00104 (<autogenerated>:1)	MOVD	8(RSP), R0
	0x006c 00108 (<autogenerated>:1)	MOVD	16(RSP), R1
	0x0070 00112 (<autogenerated>:1)	JMP	0
	0x0000 90 0b 40 f9 ff 63 30 eb 89 02 00 54 fe 0f 1d f8  ..@..c0....T....
	0x0010 fd 83 1f f8 fd 23 00 d1 23 00 40 f9 04 00 40 f9  .....#..#.@...@.
	0x0020 7f 00 04 eb 21 01 00 54 02 08 40 f9 23 08 40 f9  ....!..T..@.#.@.
	0x0030 7f 00 02 eb a1 00 00 54 00 04 40 f9 21 04 40 f9  .......T..@.!.@.
	0x0040 00 00 00 94 02 00 00 14 e0 03 1f aa fd fb 7f a9  ................
	0x0050 ff c3 00 91 c0 03 5f d6 e0 07 00 f9 e1 0b 00 f9  ......_.........
	0x0060 e3 03 1e aa 00 00 00 94 e0 07 40 f9 e1 0b 40 f9  ..........@...@.
	0x0070 e4 ff ff 17 00 00 00 00 00 00 00 00 00 00 00 00  ................
	rel 64+4 t=R_CALLARM64 runtime.memequal+0
	rel 100+4 t=R_CALLARM64 runtime.morestack_noctxt+0
main.(*T).M1 STEXT dupok size=112 args=0x8 locals=0x8 funcid=0x16 align=0x0
	0x0000 00000 (<autogenerated>:1)	TEXT	main.(*T).M1(SB), DUPOK|WRAPPER|ABIInternal, $16-8
	0x0000 00000 (<autogenerated>:1)	MOVD	16(g), R16
	0x0004 00004 (<autogenerated>:1)	PCDATA	$0, $-2
	0x0004 00004 (<autogenerated>:1)	CMP	R16, RSP
	0x0008 00008 (<autogenerated>:1)	BLS	56
	0x000c 00012 (<autogenerated>:1)	PCDATA	$0, $-1
	0x000c 00012 (<autogenerated>:1)	MOVD.W	R30, -16(RSP)
	0x0010 00016 (<autogenerated>:1)	MOVD	R29, -8(RSP)
	0x0014 00020 (<autogenerated>:1)	SUB	$8, RSP, R29
	0x0018 00024 (<autogenerated>:1)	MOVD	32(g), R16
	0x001c 00028 (<autogenerated>:1)	CBNZ	R16, 76
	0x0020 00032 (<autogenerated>:1)	NOP
	0x0020 00032 (<autogenerated>:1)	FUNCDATA	$0, gclocals·wgcWObbY2HYnK2SU/U22lA==(SB)
	0x0020 00032 (<autogenerated>:1)	FUNCDATA	$1, gclocals·J5F+7Qw7O7ve2QcWC7DpeQ==(SB)
	0x0020 00032 (<autogenerated>:1)	FUNCDATA	$5, main.(*T).M1.arginfo1(SB)
	0x0020 00032 (<autogenerated>:1)	FUNCDATA	$6, main.(*T).M1.argliveinfo(SB)
	0x0020 00032 (<autogenerated>:1)	PCDATA	$3, $1
	0x0020 00032 (<autogenerated>:1)	CBZ	R0, 48
	0x0024 00036 (<autogenerated>:1)	LDP	-8(RSP), (R29, R30)
	0x0028 00040 (<autogenerated>:1)	ADD	$16, RSP
	0x002c 00044 (<autogenerated>:1)	RET	(R30)
	0x0030 00048 (<autogenerated>:1)	PCDATA	$1, $1
	0x0030 00048 (<autogenerated>:1)	CALL	runtime.panicwrap(SB)
	0x0034 00052 (<autogenerated>:1)	HINT	$0
	0x0038 00056 (<autogenerated>:1)	NOP
	0x0038 00056 (<autogenerated>:1)	PCDATA	$1, $-1
	0x0038 00056 (<autogenerated>:1)	PCDATA	$0, $-2
	0x0038 00056 (<autogenerated>:1)	MOVD	R0, 8(RSP)
	0x003c 00060 (<autogenerated>:1)	MOVD	R30, R3
	0x0040 00064 (<autogenerated>:1)	CALL	runtime.morestack_noctxt(SB)
	0x0044 00068 (<autogenerated>:1)	PCDATA	$0, $-1
	0x0044 00068 (<autogenerated>:1)	MOVD	8(RSP), R0
	0x0048 00072 (<autogenerated>:1)	JMP	0
	0x004c 00076 (<autogenerated>:1)	MOVD	(R16), R17
	0x0050 00080 (<autogenerated>:1)	ADD	$24, RSP, R20
	0x0054 00084 (<autogenerated>:1)	CMP	R17, R20
	0x0058 00088 (<autogenerated>:1)	BNE	32
	0x005c 00092 (<autogenerated>:1)	ADD	$8, RSP, R20
	0x0060 00096 (<autogenerated>:1)	MOVD	R20, (R16)
	0x0064 00100 (<autogenerated>:1)	JMP	32
	0x0000 90 0b 40 f9 ff 63 30 eb 89 01 00 54 fe 0f 1f f8  ..@..c0....T....
	0x0010 fd 83 1f f8 fd 23 00 d1 90 13 40 f9 90 01 00 b5  .....#....@.....
	0x0020 80 00 00 b4 fd fb 7f a9 ff 43 00 91 c0 03 5f d6  .........C...._.
	0x0030 00 00 00 94 1f 20 03 d5 e0 07 00 f9 e3 03 1e aa  ..... ..........
	0x0040 00 00 00 94 e0 07 40 f9 ee ff ff 17 11 02 40 f9  ......@.......@.
	0x0050 f4 63 00 91 9f 02 11 eb 41 fe ff 54 f4 23 00 91  .c......A..T.#..
	0x0060 14 02 00 f9 ef ff ff 17 00 00 00 00 00 00 00 00  ................
	rel 48+4 t=R_CALLARM64 runtime.panicwrap+0
	rel 64+4 t=R_CALLARM64 runtime.morestack_noctxt+0
main.(*T).M2 STEXT dupok size=112 args=0x8 locals=0x8 funcid=0x16 align=0x0
	0x0000 00000 (<autogenerated>:1)	TEXT	main.(*T).M2(SB), DUPOK|WRAPPER|ABIInternal, $16-8
	0x0000 00000 (<autogenerated>:1)	MOVD	16(g), R16
	0x0004 00004 (<autogenerated>:1)	PCDATA	$0, $-2
	0x0004 00004 (<autogenerated>:1)	CMP	R16, RSP
	0x0008 00008 (<autogenerated>:1)	BLS	56
	0x000c 00012 (<autogenerated>:1)	PCDATA	$0, $-1
	0x000c 00012 (<autogenerated>:1)	MOVD.W	R30, -16(RSP)
	0x0010 00016 (<autogenerated>:1)	MOVD	R29, -8(RSP)
	0x0014 00020 (<autogenerated>:1)	SUB	$8, RSP, R29
	0x0018 00024 (<autogenerated>:1)	MOVD	32(g), R16
	0x001c 00028 (<autogenerated>:1)	CBNZ	R16, 76
	0x0020 00032 (<autogenerated>:1)	NOP
	0x0020 00032 (<autogenerated>:1)	FUNCDATA	$0, gclocals·wgcWObbY2HYnK2SU/U22lA==(SB)
	0x0020 00032 (<autogenerated>:1)	FUNCDATA	$1, gclocals·J5F+7Qw7O7ve2QcWC7DpeQ==(SB)
	0x0020 00032 (<autogenerated>:1)	FUNCDATA	$5, main.(*T).M2.arginfo1(SB)
	0x0020 00032 (<autogenerated>:1)	FUNCDATA	$6, main.(*T).M2.argliveinfo(SB)
	0x0020 00032 (<autogenerated>:1)	PCDATA	$3, $1
	0x0020 00032 (<autogenerated>:1)	CBZ	R0, 48
	0x0024 00036 (<autogenerated>:1)	LDP	-8(RSP), (R29, R30)
	0x0028 00040 (<autogenerated>:1)	ADD	$16, RSP
	0x002c 00044 (<autogenerated>:1)	RET	(R30)
	0x0030 00048 (<autogenerated>:1)	PCDATA	$1, $1
	0x0030 00048 (<autogenerated>:1)	CALL	runtime.panicwrap(SB)
	0x0034 00052 (<autogenerated>:1)	HINT	$0
	0x0038 00056 (<autogenerated>:1)	NOP
	0x0038 00056 (<autogenerated>:1)	PCDATA	$1, $-1
	0x0038 00056 (<autogenerated>:1)	PCDATA	$0, $-2
	0x0038 00056 (<autogenerated>:1)	MOVD	R0, 8(RSP)
	0x003c 00060 (<autogenerated>:1)	MOVD	R30, R3
	0x0040 00064 (<autogenerated>:1)	CALL	runtime.morestack_noctxt(SB)
	0x0044 00068 (<autogenerated>:1)	PCDATA	$0, $-1
	0x0044 00068 (<autogenerated>:1)	MOVD	8(RSP), R0
	0x0048 00072 (<autogenerated>:1)	JMP	0
	0x004c 00076 (<autogenerated>:1)	MOVD	(R16), R17
	0x0050 00080 (<autogenerated>:1)	ADD	$24, RSP, R20
	0x0054 00084 (<autogenerated>:1)	CMP	R17, R20
	0x0058 00088 (<autogenerated>:1)	BNE	32
	0x005c 00092 (<autogenerated>:1)	ADD	$8, RSP, R20
	0x0060 00096 (<autogenerated>:1)	MOVD	R20, (R16)
	0x0064 00100 (<autogenerated>:1)	JMP	32
	0x0000 90 0b 40 f9 ff 63 30 eb 89 01 00 54 fe 0f 1f f8  ..@..c0....T....
	0x0010 fd 83 1f f8 fd 23 00 d1 90 13 40 f9 90 01 00 b5  .....#....@.....
	0x0020 80 00 00 b4 fd fb 7f a9 ff 43 00 91 c0 03 5f d6  .........C...._.
	0x0030 00 00 00 94 1f 20 03 d5 e0 07 00 f9 e3 03 1e aa  ..... ..........
	0x0040 00 00 00 94 e0 07 40 f9 ee ff ff 17 11 02 40 f9  ......@.......@.
	0x0050 f4 63 00 91 9f 02 11 eb 41 fe ff 54 f4 23 00 91  .c......A..T.#..
	0x0060 14 02 00 f9 ef ff ff 17 00 00 00 00 00 00 00 00  ................
	rel 48+4 t=R_CALLARM64 runtime.panicwrap+0
	rel 64+4 t=R_CALLARM64 runtime.morestack_noctxt+0
main.NonEmptyInterface.M1 STEXT dupok size=128 args=0x10 locals=0x18 funcid=0x16 align=0x0
	0x0000 00000 (<autogenerated>:1)	TEXT	main.NonEmptyInterface.M1(SB), DUPOK|WRAPPER|ABIInternal, $32-16
	0x0000 00000 (<autogenerated>:1)	MOVD	16(g), R16
	0x0004 00004 (<autogenerated>:1)	PCDATA	$0, $-2
	0x0004 00004 (<autogenerated>:1)	CMP	R16, RSP
	0x0008 00008 (<autogenerated>:1)	BLS	64
	0x000c 00012 (<autogenerated>:1)	PCDATA	$0, $-1
	0x000c 00012 (<autogenerated>:1)	MOVD.W	R30, -32(RSP)
	0x0010 00016 (<autogenerated>:1)	MOVD	R29, -8(RSP)
	0x0014 00020 (<autogenerated>:1)	SUB	$8, RSP, R29
	0x0018 00024 (<autogenerated>:1)	MOVD	32(g), R16
	0x001c 00028 (<autogenerated>:1)	CBNZ	R16, 92
	0x0020 00032 (<autogenerated>:1)	NOP
	0x0020 00032 (<autogenerated>:1)	MOVD	R0, main.~p0(FP)
	0x0024 00036 (<autogenerated>:1)	MOVD	R1, main.~p0+8(FP)
	0x0028 00040 (<autogenerated>:1)	FUNCDATA	$0, gclocals·IuErl7MOXaHVn7EZYWzfFA==(SB)
	0x0028 00040 (<autogenerated>:1)	FUNCDATA	$1, gclocals·J5F+7Qw7O7ve2QcWC7DpeQ==(SB)
	0x0028 00040 (<autogenerated>:1)	FUNCDATA	$5, main.NonEmptyInterface.M1.arginfo1(SB)
	0x0028 00040 (<autogenerated>:1)	FUNCDATA	$6, main.NonEmptyInterface.M1.argliveinfo(SB)
	0x0028 00040 (<autogenerated>:1)	PCDATA	$3, $1
	0x0028 00040 (<autogenerated>:1)	MOVD	24(R0), R2
	0x002c 00044 (<autogenerated>:1)	MOVD	R1, R0
	0x0030 00048 (<autogenerated>:1)	PCDATA	$1, $1
	0x0030 00048 (<autogenerated>:1)	CALL	(R2)
	0x0034 00052 (<autogenerated>:1)	LDP	-8(RSP), (R29, R30)
	0x0038 00056 (<autogenerated>:1)	ADD	$32, RSP
	0x003c 00060 (<autogenerated>:1)	RET	(R30)
	0x0040 00064 (<autogenerated>:1)	NOP
	0x0040 00064 (<autogenerated>:1)	PCDATA	$1, $-1
	0x0040 00064 (<autogenerated>:1)	PCDATA	$0, $-2
	0x0040 00064 (<autogenerated>:1)	MOVD	R0, 8(RSP)
	0x0044 00068 (<autogenerated>:1)	MOVD	R1, 16(RSP)
	0x0048 00072 (<autogenerated>:1)	MOVD	R30, R3
	0x004c 00076 (<autogenerated>:1)	CALL	runtime.morestack_noctxt(SB)
	0x0050 00080 (<autogenerated>:1)	PCDATA	$0, $-1
	0x0050 00080 (<autogenerated>:1)	MOVD	8(RSP), R0
	0x0054 00084 (<autogenerated>:1)	MOVD	16(RSP), R1
	0x0058 00088 (<autogenerated>:1)	JMP	0
	0x005c 00092 (<autogenerated>:1)	MOVD	(R16), R17
	0x0060 00096 (<autogenerated>:1)	ADD	$40, RSP, R20
	0x0064 00100 (<autogenerated>:1)	CMP	R17, R20
	0x0068 00104 (<autogenerated>:1)	BNE	32
	0x006c 00108 (<autogenerated>:1)	ADD	$8, RSP, R20
	0x0070 00112 (<autogenerated>:1)	MOVD	R20, (R16)
	0x0074 00116 (<autogenerated>:1)	JMP	32
	0x0000 90 0b 40 f9 ff 63 30 eb c9 01 00 54 fe 0f 1e f8  ..@..c0....T....
	0x0010 fd 83 1f f8 fd 23 00 d1 90 13 40 f9 10 02 00 b5  .....#....@.....
	0x0020 e0 17 00 f9 e1 1b 00 f9 02 0c 40 f9 e0 03 01 aa  ..........@.....
	0x0030 40 00 3f d6 fd fb 7f a9 ff 83 00 91 c0 03 5f d6  @.?..........._.
	0x0040 e0 07 00 f9 e1 0b 00 f9 e3 03 1e aa 00 00 00 94  ................
	0x0050 e0 07 40 f9 e1 0b 40 f9 ea ff ff 17 11 02 40 f9  ..@...@.......@.
	0x0060 f4 a3 00 91 9f 02 11 eb c1 fd ff 54 f4 23 00 91  ...........T.#..
	0x0070 14 02 00 f9 eb ff ff 17 00 00 00 00 00 00 00 00  ................
	rel 0+0 t=R_USEIFACEMETHOD type:main.NonEmptyInterface+96
	rel 48+0 t=R_CALLIND +0
	rel 76+4 t=R_CALLARM64 runtime.morestack_noctxt+0
main.NonEmptyInterface.M2 STEXT dupok size=128 args=0x10 locals=0x18 funcid=0x16 align=0x0
	0x0000 00000 (<autogenerated>:1)	TEXT	main.NonEmptyInterface.M2(SB), DUPOK|WRAPPER|ABIInternal, $32-16
	0x0000 00000 (<autogenerated>:1)	MOVD	16(g), R16
	0x0004 00004 (<autogenerated>:1)	PCDATA	$0, $-2
	0x0004 00004 (<autogenerated>:1)	CMP	R16, RSP
	0x0008 00008 (<autogenerated>:1)	BLS	64
	0x000c 00012 (<autogenerated>:1)	PCDATA	$0, $-1
	0x000c 00012 (<autogenerated>:1)	MOVD.W	R30, -32(RSP)
	0x0010 00016 (<autogenerated>:1)	MOVD	R29, -8(RSP)
	0x0014 00020 (<autogenerated>:1)	SUB	$8, RSP, R29
	0x0018 00024 (<autogenerated>:1)	MOVD	32(g), R16
	0x001c 00028 (<autogenerated>:1)	CBNZ	R16, 92
	0x0020 00032 (<autogenerated>:1)	NOP
	0x0020 00032 (<autogenerated>:1)	MOVD	R0, main.~p0(FP)
	0x0024 00036 (<autogenerated>:1)	MOVD	R1, main.~p0+8(FP)
	0x0028 00040 (<autogenerated>:1)	FUNCDATA	$0, gclocals·IuErl7MOXaHVn7EZYWzfFA==(SB)
	0x0028 00040 (<autogenerated>:1)	FUNCDATA	$1, gclocals·J5F+7Qw7O7ve2QcWC7DpeQ==(SB)
	0x0028 00040 (<autogenerated>:1)	FUNCDATA	$5, main.NonEmptyInterface.M2.arginfo1(SB)
	0x0028 00040 (<autogenerated>:1)	FUNCDATA	$6, main.NonEmptyInterface.M2.argliveinfo(SB)
	0x0028 00040 (<autogenerated>:1)	PCDATA	$3, $1
	0x0028 00040 (<autogenerated>:1)	MOVD	32(R0), R2
	0x002c 00044 (<autogenerated>:1)	MOVD	R1, R0
	0x0030 00048 (<autogenerated>:1)	PCDATA	$1, $1
	0x0030 00048 (<autogenerated>:1)	CALL	(R2)
	0x0034 00052 (<autogenerated>:1)	LDP	-8(RSP), (R29, R30)
	0x0038 00056 (<autogenerated>:1)	ADD	$32, RSP
	0x003c 00060 (<autogenerated>:1)	RET	(R30)
	0x0040 00064 (<autogenerated>:1)	NOP
	0x0040 00064 (<autogenerated>:1)	PCDATA	$1, $-1
	0x0040 00064 (<autogenerated>:1)	PCDATA	$0, $-2
	0x0040 00064 (<autogenerated>:1)	MOVD	R0, 8(RSP)
	0x0044 00068 (<autogenerated>:1)	MOVD	R1, 16(RSP)
	0x0048 00072 (<autogenerated>:1)	MOVD	R30, R3
	0x004c 00076 (<autogenerated>:1)	CALL	runtime.morestack_noctxt(SB)
	0x0050 00080 (<autogenerated>:1)	PCDATA	$0, $-1
	0x0050 00080 (<autogenerated>:1)	MOVD	8(RSP), R0
	0x0054 00084 (<autogenerated>:1)	MOVD	16(RSP), R1
	0x0058 00088 (<autogenerated>:1)	JMP	0
	0x005c 00092 (<autogenerated>:1)	MOVD	(R16), R17
	0x0060 00096 (<autogenerated>:1)	ADD	$40, RSP, R20
	0x0064 00100 (<autogenerated>:1)	CMP	R17, R20
	0x0068 00104 (<autogenerated>:1)	BNE	32
	0x006c 00108 (<autogenerated>:1)	ADD	$8, RSP, R20
	0x0070 00112 (<autogenerated>:1)	MOVD	R20, (R16)
	0x0074 00116 (<autogenerated>:1)	JMP	32
	0x0000 90 0b 40 f9 ff 63 30 eb c9 01 00 54 fe 0f 1e f8  ..@..c0....T....
	0x0010 fd 83 1f f8 fd 23 00 d1 90 13 40 f9 10 02 00 b5  .....#....@.....
	0x0020 e0 17 00 f9 e1 1b 00 f9 02 10 40 f9 e0 03 01 aa  ..........@.....
	0x0030 40 00 3f d6 fd fb 7f a9 ff 83 00 91 c0 03 5f d6  @.?..........._.
	0x0040 e0 07 00 f9 e1 0b 00 f9 e3 03 1e aa 00 00 00 94  ................
	0x0050 e0 07 40 f9 e1 0b 40 f9 ea ff ff 17 11 02 40 f9  ..@...@.......@.
	0x0060 f4 a3 00 91 9f 02 11 eb c1 fd ff 54 f4 23 00 91  ...........T.#..
	0x0070 14 02 00 f9 eb ff ff 17 00 00 00 00 00 00 00 00  ................
	rel 0+0 t=R_USEIFACEMETHOD type:main.NonEmptyInterface+104
	rel 48+0 t=R_CALLIND +0
	rel 76+4 t=R_CALLARM64 runtime.morestack_noctxt+0
type:.eq.main.T STEXT dupok size=128 args=0x10 locals=0x28 funcid=0x0 align=0x0
	0x0000 00000 (<autogenerated>:1)	TEXT	type:.eq.main.T(SB), DUPOK|ABIInternal, $48-16
	0x0000 00000 (<autogenerated>:1)	MOVD	16(g), R16
	0x0004 00004 (<autogenerated>:1)	PCDATA	$0, $-2
	0x0004 00004 (<autogenerated>:1)	CMP	R16, RSP
	0x0008 00008 (<autogenerated>:1)	BLS	88
	0x000c 00012 (<autogenerated>:1)	PCDATA	$0, $-1
	0x000c 00012 (<autogenerated>:1)	MOVD.W	R30, -48(RSP)
	0x0010 00016 (<autogenerated>:1)	MOVD	R29, -8(RSP)
	0x0014 00020 (<autogenerated>:1)	SUB	$8, RSP, R29
	0x0018 00024 (<autogenerated>:1)	FUNCDATA	$0, gclocals·TjPuuCwdlCpTaRQGRKTrYw==(SB)
	0x0018 00024 (<autogenerated>:1)	FUNCDATA	$1, gclocals·J5F+7Qw7O7ve2QcWC7DpeQ==(SB)
	0x0018 00024 (<autogenerated>:1)	FUNCDATA	$5, type:.eq.main.T.arginfo1(SB)
	0x0018 00024 (<autogenerated>:1)	FUNCDATA	$6, type:.eq.main.T.argliveinfo(SB)
	0x0018 00024 (<autogenerated>:1)	PCDATA	$3, $1
	0x0018 00024 (<autogenerated>:1)	MOVD	(R1), R3
	0x001c 00028 (<autogenerated>:1)	MOVD	(R0), R4
	0x0020 00032 (<autogenerated>:1)	CMP	R4, R3
	0x0024 00036 (<autogenerated>:1)	BNE	72
	0x0028 00040 (<autogenerated>:1)	MOVD	16(R0), R2
	0x002c 00044 (<autogenerated>:1)	MOVD	16(R1), R3
	0x0030 00048 (<autogenerated>:1)	CMP	R2, R3
	0x0034 00052 (<autogenerated>:1)	BNE	72
	0x0038 00056 (<autogenerated>:1)	MOVD	8(R0), R0
	0x003c 00060 (<autogenerated>:1)	MOVD	8(R1), R1
	0x0040 00064 (<autogenerated>:1)	PCDATA	$1, $1
	0x0040 00064 (<autogenerated>:1)	CALL	runtime.memequal(SB)
	0x0044 00068 (<autogenerated>:1)	JMP	76
	0x0048 00072 (<autogenerated>:1)	MOVD	ZR, R0
	0x004c 00076 (<autogenerated>:1)	LDP	-8(RSP), (R29, R30)
	0x0050 00080 (<autogenerated>:1)	ADD	$48, RSP
	0x0054 00084 (<autogenerated>:1)	RET	(R30)
	0x0058 00088 (<autogenerated>:1)	NOP
	0x0058 00088 (<autogenerated>:1)	PCDATA	$1, $-1
	0x0058 00088 (<autogenerated>:1)	PCDATA	$0, $-2
	0x0058 00088 (<autogenerated>:1)	MOVD	R0, 8(RSP)
	0x005c 00092 (<autogenerated>:1)	MOVD	R1, 16(RSP)
	0x0060 00096 (<autogenerated>:1)	MOVD	R30, R3
	0x0064 00100 (<autogenerated>:1)	CALL	runtime.morestack_noctxt(SB)
	0x0068 00104 (<autogenerated>:1)	PCDATA	$0, $-1
	0x0068 00104 (<autogenerated>:1)	MOVD	8(RSP), R0
	0x006c 00108 (<autogenerated>:1)	MOVD	16(RSP), R1
	0x0070 00112 (<autogenerated>:1)	JMP	0
	0x0000 90 0b 40 f9 ff 63 30 eb 89 02 00 54 fe 0f 1d f8  ..@..c0....T....
	0x0010 fd 83 1f f8 fd 23 00 d1 23 00 40 f9 04 00 40 f9  .....#..#.@...@.
	0x0020 7f 00 04 eb 21 01 00 54 02 08 40 f9 23 08 40 f9  ....!..T..@.#.@.
	0x0030 7f 00 02 eb a1 00 00 54 00 04 40 f9 21 04 40 f9  .......T..@.!.@.
	0x0040 00 00 00 94 02 00 00 14 e0 03 1f aa fd fb 7f a9  ................
	0x0050 ff c3 00 91 c0 03 5f d6 e0 07 00 f9 e1 0b 00 f9  ......_.........
	0x0060 e3 03 1e aa 00 00 00 94 e0 07 40 f9 e1 0b 40 f9  ..........@...@.
	0x0070 e4 ff ff 17 00 00 00 00 00 00 00 00 00 00 00 00  ................
	rel 64+4 t=R_CALLARM64 runtime.memequal+0
	rel 100+4 t=R_CALLARM64 runtime.morestack_noctxt+0
go:cuinfo.producer.<unlinkable> SDWARFCUINFO dupok size=0
	0x0000 72 65 67 61 62 69                                regabi
runtime.interequal·f SRODATA dupok size=8
	0x0000 00 00 00 00 00 00 00 00                          ........
	rel 0+8 t=R_ADDR runtime.interequal+0
runtime.memequal64·f SRODATA dupok size=8
	0x0000 00 00 00 00 00 00 00 00                          ........
	rel 0+8 t=R_ADDR runtime.memequal64+0
runtime.gcbits.0100000000000000 SRODATA dupok size=8
	0x0000 01 00 00 00 00 00 00 00                          ........
type:.namedata.*main.NonEmptyInterface. SRODATA dupok size=25
	0x0000 01 17 2a 6d 61 69 6e 2e 4e 6f 6e 45 6d 70 74 79  ..*main.NonEmpty
	0x0010 49 6e 74 65 72 66 61 63 65                       Interface
type:*<unlinkable>.NonEmptyInterface SRODATA size=56
	0x0000 08 00 00 00 00 00 00 00 08 00 00 00 00 00 00 00  ................
	0x0010 e1 ee 22 c9 08 08 08 36 00 00 00 00 00 00 00 00  .."....6........
	0x0020 00 00 00 00 00 00 00 00 00 00 00 00 00 00 00 00  ................
	0x0030 00 00 00 00 00 00 00 00                          ........
	rel 24+8 t=R_ADDR runtime.memequal64·f+0
	rel 32+8 t=R_ADDR runtime.gcbits.0100000000000000+0
	rel 40+4 t=R_ADDROFF type:.namedata.*main.NonEmptyInterface.+0
	rel 48+8 t=R_ADDR type:<unlinkable>.NonEmptyInterface+0
runtime.gcbits.0200000000000000 SRODATA dupok size=8
	0x0000 02 00 00 00 00 00 00 00                          ........
type:.namedata.*func()- SRODATA dupok size=9
	0x0000 00 07 2a 66 75 6e 63 28 29                       ..*func()
type:*func() SRODATA dupok size=56
	0x0000 08 00 00 00 00 00 00 00 08 00 00 00 00 00 00 00  ................
	0x0010 75 ac 29 27 08 08 08 36 00 00 00 00 00 00 00 00  u.)'...6........
	0x0020 00 00 00 00 00 00 00 00 00 00 00 00 00 00 00 00  ................
	0x0030 00 00 00 00 00 00 00 00                          ........
	rel 24+8 t=R_ADDR runtime.memequal64·f+0
	rel 32+8 t=R_ADDR runtime.gcbits.0100000000000000+0
	rel 40+4 t=R_ADDROFF type:.namedata.*func()-+0
	rel 48+8 t=R_ADDR type:func()+0
type:func() SRODATA dupok size=56
	0x0000 08 00 00 00 00 00 00 00 08 00 00 00 00 00 00 00  ................
	0x0010 fe fa b9 80 02 08 08 33 00 00 00 00 00 00 00 00  .......3........
	0x0020 00 00 00 00 00 00 00 00 00 00 00 00 00 00 00 00  ................
	0x0030 00 00 00 00                                      ....
	rel 32+8 t=R_ADDR runtime.gcbits.0100000000000000+0
	rel 40+4 t=R_ADDROFF type:.namedata.*func()-+0
	rel 44+4 t=RelocType(-32763) type:*func()+0
type:.importpath.<unlinkable>. SRODATA dupok size=14
	0x0000 00 0c 3c 75 6e 6c 69 6e 6b 61 62 6c 65 3e        ..<unlinkable>
type:.namedata.M1. SRODATA dupok size=4
	0x0000 01 02 4d 31                                      ..M1
type:.namedata.M2. SRODATA dupok size=4
	0x0000 01 02 4d 32                                      ..M2
type:<unlinkable>.NonEmptyInterface SRODATA size=112
	0x0000 10 00 00 00 00 00 00 00 10 00 00 00 00 00 00 00  ................
	0x0010 01 06 66 7c 07 08 08 14 00 00 00 00 00 00 00 00  ..f|............
	0x0020 00 00 00 00 00 00 00 00 00 00 00 00 00 00 00 00  ................
	0x0030 00 00 00 00 00 00 00 00 00 00 00 00 00 00 00 00  ................
	0x0040 02 00 00 00 00 00 00 00 02 00 00 00 00 00 00 00  ................
	0x0050 00 00 00 00 00 00 00 00 20 00 00 00 00 00 00 00  ........ .......
	0x0060 00 00 00 00 00 00 00 00 00 00 00 00 00 00 00 00  ................
	rel 24+8 t=R_ADDR runtime.interequal·f+0
	rel 32+8 t=R_ADDR runtime.gcbits.0200000000000000+0
	rel 40+4 t=R_ADDROFF type:.namedata.*main.NonEmptyInterface.+0
	rel 44+4 t=R_ADDROFF type:*<unlinkable>.NonEmptyInterface+0
	rel 48+8 t=R_ADDR type:.importpath.<unlinkable>.+0
	rel 56+8 t=R_ADDR type:<unlinkable>.NonEmptyInterface+96
	rel 80+4 t=R_ADDROFF type:.importpath.<unlinkable>.+0
	rel 96+4 t=R_ADDROFF type:.namedata.M1.+0
	rel 100+4 t=R_ADDROFF type:func()+0
	rel 104+4 t=R_ADDROFF type:.namedata.M2.+0
	rel 108+4 t=R_ADDROFF type:func()+0
type:.eqfunc.<unlinkable>.T SRODATA dupok size=8
	0x0000 00 00 00 00 00 00 00 00                          ........
	rel 0+8 t=R_ADDR type:.eq.<unlinkable>.T+0
type:.namedata.*main.T. SRODATA dupok size=9
	0x0000 01 07 2a 6d 61 69 6e 2e 54                       ..*main.T
type:.namedata.*func(*main.T)- SRODATA dupok size=16
	0x0000 00 0e 2a 66 75 6e 63 28 2a 6d 61 69 6e 2e 54 29  ..*func(*main.T)
type:*func(*<unlinkable>.T) SRODATA dupok size=56
	0x0000 08 00 00 00 00 00 00 00 08 00 00 00 00 00 00 00  ................
	0x0010 95 e3 1b e9 08 08 08 36 00 00 00 00 00 00 00 00  .......6........
	0x0020 00 00 00 00 00 00 00 00 00 00 00 00 00 00 00 00  ................
	0x0030 00 00 00 00 00 00 00 00                          ........
	rel 24+8 t=R_ADDR runtime.memequal64·f+0
	rel 32+8 t=R_ADDR runtime.gcbits.0100000000000000+0
	rel 40+4 t=R_ADDROFF type:.namedata.*func(*main.T)-+0
	rel 48+8 t=R_ADDR type:func(*<unlinkable>.T)+0
type:func(*<unlinkable>.T) SRODATA dupok size=64
	0x0000 08 00 00 00 00 00 00 00 08 00 00 00 00 00 00 00  ................
	0x0010 f7 64 0f c7 02 08 08 33 00 00 00 00 00 00 00 00  .d.....3........
	0x0020 00 00 00 00 00 00 00 00 00 00 00 00 00 00 00 00  ................
	0x0030 01 00 00 00 00 00 00 00 00 00 00 00 00 00 00 00  ................
	rel 32+8 t=R_ADDR runtime.gcbits.0100000000000000+0
	rel 40+4 t=R_ADDROFF type:.namedata.*func(*main.T)-+0
	rel 44+4 t=RelocType(-32763) type:*func(*<unlinkable>.T)+0
	rel 56+8 t=R_ADDR type:*<unlinkable>.T+0
type:*<unlinkable>.T SRODATA size=104
	0x0000 08 00 00 00 00 00 00 00 08 00 00 00 00 00 00 00  ................
	0x0010 cc b8 66 ce 09 08 08 36 00 00 00 00 00 00 00 00  ..f....6........
	0x0020 00 00 00 00 00 00 00 00 00 00 00 00 00 00 00 00  ................
	0x0030 00 00 00 00 00 00 00 00 00 00 00 00 02 00 02 00  ................
	0x0040 10 00 00 00 00 00 00 00 00 00 00 00 00 00 00 00  ................
	0x0050 00 00 00 00 00 00 00 00 00 00 00 00 00 00 00 00  ................
	0x0060 00 00 00 00 00 00 00 00                          ........
	rel 24+8 t=R_ADDR runtime.memequal64·f+0
	rel 32+8 t=R_ADDR runtime.gcbits.0100000000000000+0
	rel 40+4 t=R_ADDROFF type:.namedata.*main.T.+0
	rel 48+8 t=R_ADDR type:<unlinkable>.T+0
	rel 56+4 t=R_ADDROFF type:.importpath.<unlinkable>.+0
	rel 72+4 t=R_ADDROFF type:.namedata.M1.+0
	rel 76+4 t=R_METHODOFF type:func()+0
	rel 80+4 t=R_METHODOFF <unlinkable>.(*T).M1+0
	rel 84+4 t=R_METHODOFF <unlinkable>.(*T).M1+0
	rel 88+4 t=R_ADDROFF type:.namedata.M2.+0
	rel 92+4 t=R_METHODOFF type:func()+0
	rel 96+4 t=R_METHODOFF <unlinkable>.(*T).M2+0
	rel 100+4 t=R_METHODOFF <unlinkable>.(*T).M2+0
type:.namedata.n- SRODATA dupok size=3
	0x0000 00 01 6e                                         ..n
type:.namedata.s- SRODATA dupok size=3
	0x0000 00 01 73                                         ..s
type:.namedata.*func(main.T)- SRODATA dupok size=15
	0x0000 00 0d 2a 66 75 6e 63 28 6d 61 69 6e 2e 54 29     ..*func(main.T)
type:*func(<unlinkable>.T) SRODATA dupok size=56
	0x0000 08 00 00 00 00 00 00 00 08 00 00 00 00 00 00 00  ................
	0x0010 4a aa 80 83 08 08 08 36 00 00 00 00 00 00 00 00  J......6........
	0x0020 00 00 00 00 00 00 00 00 00 00 00 00 00 00 00 00  ................
	0x0030 00 00 00 00 00 00 00 00                          ........
	rel 24+8 t=R_ADDR runtime.memequal64·f+0
	rel 32+8 t=R_ADDR runtime.gcbits.0100000000000000+0
	rel 40+4 t=R_ADDROFF type:.namedata.*func(main.T)-+0
	rel 48+8 t=R_ADDR type:func(<unlinkable>.T)+0
type:func(<unlinkable>.T) SRODATA dupok size=64
	0x0000 08 00 00 00 00 00 00 00 08 00 00 00 00 00 00 00  ................
	0x0010 cb 85 51 be 02 08 08 33 00 00 00 00 00 00 00 00  ..Q....3........
	0x0020 00 00 00 00 00 00 00 00 00 00 00 00 00 00 00 00  ................
	0x0030 01 00 00 00 00 00 00 00 00 00 00 00 00 00 00 00  ................
	rel 32+8 t=R_ADDR runtime.gcbits.0100000000000000+0
	rel 40+4 t=R_ADDROFF type:.namedata.*func(main.T)-+0
	rel 44+4 t=RelocType(-32763) type:*func(<unlinkable>.T)+0
	rel 56+8 t=R_ADDR type:<unlinkable>.T+0
type:<unlinkable>.T SRODATA size=176
	0x0000 18 00 00 00 00 00 00 00 10 00 00 00 00 00 00 00  ................
	0x0010 e5 18 97 6d 07 08 08 19 00 00 00 00 00 00 00 00  ...m............
	0x0020 00 00 00 00 00 00 00 00 00 00 00 00 00 00 00 00  ................
	0x0030 00 00 00 00 00 00 00 00 00 00 00 00 00 00 00 00  ................
	0x0040 02 00 00 00 00 00 00 00 02 00 00 00 00 00 00 00  ................
	0x0050 00 00 00 00 02 00 02 00 40 00 00 00 00 00 00 00  ........@.......
	0x0060 00 00 00 00 00 00 00 00 00 00 00 00 00 00 00 00  ................
	0x0070 00 00 00 00 00 00 00 00 00 00 00 00 00 00 00 00  ................
	0x0080 00 00 00 00 00 00 00 00 08 00 00 00 00 00 00 00  ................
	0x0090 00 00 00 00 00 00 00 00 00 00 00 00 00 00 00 00  ................
	0x00a0 00 00 00 00 00 00 00 00 00 00 00 00 00 00 00 00  ................
	rel 24+8 t=R_ADDR type:.eqfunc.<unlinkable>.T+0
	rel 32+8 t=R_ADDR runtime.gcbits.0200000000000000+0
	rel 40+4 t=R_ADDROFF type:.namedata.*main.T.+0
	rel 44+4 t=R_ADDROFF type:*<unlinkable>.T+0
	rel 48+8 t=R_ADDR type:.importpath.<unlinkable>.+0
	rel 56+8 t=R_ADDR type:<unlinkable>.T+96
	rel 80+4 t=R_ADDROFF type:.importpath.<unlinkable>.+0
	rel 96+8 t=R_ADDR type:.namedata.n-+0
	rel 104+8 t=R_ADDR type:int+0
	rel 120+8 t=R_ADDR type:.namedata.s-+0
	rel 128+8 t=R_ADDR type:string+0
	rel 144+4 t=R_ADDROFF type:.namedata.M1.+0
	rel 148+4 t=R_METHODOFF type:func()+0
	rel 152+4 t=R_METHODOFF <unlinkable>.(*T).M1+0
	rel 156+4 t=R_METHODOFF <unlinkable>.T.M1+0
	rel 160+4 t=R_ADDROFF type:.namedata.M2.+0
	rel 164+4 t=R_METHODOFF type:func()+0
	rel 168+4 t=R_METHODOFF <unlinkable>.(*T).M2+0
	rel 172+4 t=R_METHODOFF <unlinkable>.T.M2+0
go:itab.<unlinkable>.T,<unlinkable>.NonEmptyInterface SRODATA dupok size=40
	0x0000 00 00 00 00 00 00 00 00 00 00 00 00 00 00 00 00  ................
	0x0010 e5 18 97 6d 00 00 00 00 00 00 00 00 00 00 00 00  ...m............
	0x0020 00 00 00 00 00 00 00 00                          ........
	rel 0+8 t=R_ADDR type:<unlinkable>.NonEmptyInterface+0
	rel 8+8 t=R_ADDR type:<unlinkable>.T+0
	rel 24+8 t=RelocType(-32767) <unlinkable>.(*T).M1+0
	rel 32+8 t=RelocType(-32767) <unlinkable>.(*T).M2+0
go:cuinfo.packagename.main SDWARFCUINFO dupok size=0
	0x0000 6d 61 69 6e                                      main
go:info.main.T.M1$abstract SDWARFABSFCN dupok size=15
	0x0000 05 6d 61 69 6e 2e 54 2e 4d 31 00 01 08 01 00     .main.T.M1.....
go:info.main.T.M2$abstract SDWARFABSFCN dupok size=15
	0x0000 05 6d 61 69 6e 2e 54 2e 4d 32 00 01 09 01 00     .main.T.M2.....
main..inittask SNOPTRDATA size=8
	0x0000 00 00 00 00 00 00 00 00                          ........
type:*main.NonEmptyInterface SRODATA size=56
	0x0000 08 00 00 00 00 00 00 00 08 00 00 00 00 00 00 00  ................
	0x0010 7d a5 96 9d 08 08 08 36 00 00 00 00 00 00 00 00  }......6........
	0x0020 00 00 00 00 00 00 00 00 00 00 00 00 00 00 00 00  ................
	0x0030 00 00 00 00 00 00 00 00                          ........
	rel 24+8 t=R_ADDR runtime.memequal64·f+0
	rel 32+8 t=R_ADDR runtime.gcbits.0100000000000000+0
	rel 40+4 t=R_ADDROFF type:.namedata.*main.NonEmptyInterface.+0
	rel 48+8 t=R_ADDR type:main.NonEmptyInterface+0
type:main.NonEmptyInterface SRODATA size=112
	0x0000 10 00 00 00 00 00 00 00 10 00 00 00 00 00 00 00  ................
	0x0010 9e 21 48 70 07 08 08 14 00 00 00 00 00 00 00 00  .!Hp............
	0x0020 00 00 00 00 00 00 00 00 00 00 00 00 00 00 00 00  ................
	0x0030 00 00 00 00 00 00 00 00 00 00 00 00 00 00 00 00  ................
	0x0040 02 00 00 00 00 00 00 00 02 00 00 00 00 00 00 00  ................
	0x0050 00 00 00 00 00 00 00 00 20 00 00 00 00 00 00 00  ........ .......
	0x0060 00 00 00 00 00 00 00 00 00 00 00 00 00 00 00 00  ................
	rel 24+8 t=R_ADDR runtime.interequal·f+0
	rel 32+8 t=R_ADDR runtime.gcbits.0200000000000000+0
	rel 40+4 t=R_ADDROFF type:.namedata.*main.NonEmptyInterface.+0
	rel 44+4 t=R_ADDROFF type:*main.NonEmptyInterface+0
	rel 48+8 t=R_ADDR type:.importpath.<unlinkable>.+0
	rel 56+8 t=R_ADDR type:main.NonEmptyInterface+96
	rel 80+4 t=R_ADDROFF type:.importpath.<unlinkable>.+0
	rel 96+4 t=R_ADDROFF type:.namedata.M1.+0
	rel 100+4 t=R_ADDROFF type:func()+0
	rel 104+4 t=R_ADDROFF type:.namedata.M2.+0
	rel 108+4 t=R_ADDROFF type:func()+0
type:.eqfunc.main.T SRODATA dupok size=8
	0x0000 00 00 00 00 00 00 00 00                          ........
	rel 0+8 t=R_ADDR type:.eq.main.T+0
type:*func(*main.T) SRODATA dupok size=56
	0x0000 08 00 00 00 00 00 00 00 08 00 00 00 00 00 00 00  ................
	0x0010 0e c8 9a 5c 08 08 08 36 00 00 00 00 00 00 00 00  ...\...6........
	0x0020 00 00 00 00 00 00 00 00 00 00 00 00 00 00 00 00  ................
	0x0030 00 00 00 00 00 00 00 00                          ........
	rel 24+8 t=R_ADDR runtime.memequal64·f+0
	rel 32+8 t=R_ADDR runtime.gcbits.0100000000000000+0
	rel 40+4 t=R_ADDROFF type:.namedata.*func(*main.T)-+0
	rel 48+8 t=R_ADDR type:func(*main.T)+0
type:func(*main.T) SRODATA dupok size=64
	0x0000 08 00 00 00 00 00 00 00 08 00 00 00 00 00 00 00  ................
	0x0010 43 44 3f 4a 02 08 08 33 00 00 00 00 00 00 00 00  CD?J...3........
	0x0020 00 00 00 00 00 00 00 00 00 00 00 00 00 00 00 00  ................
	0x0030 01 00 00 00 00 00 00 00 00 00 00 00 00 00 00 00  ................
	rel 32+8 t=R_ADDR runtime.gcbits.0100000000000000+0
	rel 40+4 t=R_ADDROFF type:.namedata.*func(*main.T)-+0
	rel 44+4 t=RelocType(-32763) type:*func(*main.T)+0
	rel 56+8 t=R_ADDR type:*main.T+0
type:*main.T SRODATA size=104
	0x0000 08 00 00 00 00 00 00 00 08 00 00 00 00 00 00 00  ................
	0x0010 df 19 fb e2 09 08 08 36 00 00 00 00 00 00 00 00  .......6........
	0x0020 00 00 00 00 00 00 00 00 00 00 00 00 00 00 00 00  ................
	0x0030 00 00 00 00 00 00 00 00 00 00 00 00 02 00 02 00  ................
	0x0040 10 00 00 00 00 00 00 00 00 00 00 00 00 00 00 00  ................
	0x0050 00 00 00 00 00 00 00 00 00 00 00 00 00 00 00 00  ................
	0x0060 00 00 00 00 00 00 00 00                          ........
	rel 24+8 t=R_ADDR runtime.memequal64·f+0
	rel 32+8 t=R_ADDR runtime.gcbits.0100000000000000+0
	rel 40+4 t=R_ADDROFF type:.namedata.*main.T.+0
	rel 48+8 t=R_ADDR type:main.T+0
	rel 56+4 t=R_ADDROFF type:.importpath.<unlinkable>.+0
	rel 72+4 t=R_ADDROFF type:.namedata.M1.+0
	rel 76+4 t=R_METHODOFF type:func()+0
	rel 80+4 t=R_METHODOFF main.(*T).M1+0
	rel 84+4 t=R_METHODOFF main.(*T).M1+0
	rel 88+4 t=R_ADDROFF type:.namedata.M2.+0
	rel 92+4 t=R_METHODOFF type:func()+0
	rel 96+4 t=R_METHODOFF main.(*T).M2+0
	rel 100+4 t=R_METHODOFF main.(*T).M2+0
type:*func(main.T) SRODATA dupok size=56
	0x0000 08 00 00 00 00 00 00 00 08 00 00 00 00 00 00 00  ................
	0x0010 31 e4 b3 64 08 08 08 36 00 00 00 00 00 00 00 00  1..d...6........
	0x0020 00 00 00 00 00 00 00 00 00 00 00 00 00 00 00 00  ................
	0x0030 00 00 00 00 00 00 00 00                          ........
	rel 24+8 t=R_ADDR runtime.memequal64·f+0
	rel 32+8 t=R_ADDR runtime.gcbits.0100000000000000+0
	rel 40+4 t=R_ADDROFF type:.namedata.*func(main.T)-+0
	rel 48+8 t=R_ADDR type:func(main.T)+0
type:func(main.T) SRODATA dupok size=64
	0x0000 08 00 00 00 00 00 00 00 08 00 00 00 00 00 00 00  ................
	0x0010 7b 0c 7f 54 02 08 08 33 00 00 00 00 00 00 00 00  {..T...3........
	0x0020 00 00 00 00 00 00 00 00 00 00 00 00 00 00 00 00  ................
	0x0030 01 00 00 00 00 00 00 00 00 00 00 00 00 00 00 00  ................
	rel 32+8 t=R_ADDR runtime.gcbits.0100000000000000+0
	rel 40+4 t=R_ADDROFF type:.namedata.*func(main.T)-+0
	rel 44+4 t=RelocType(-32763) type:*func(main.T)+0
	rel 56+8 t=R_ADDR type:main.T+0
type:main.T SRODATA size=176
	0x0000 18 00 00 00 00 00 00 00 10 00 00 00 00 00 00 00  ................
	0x0010 3f af 54 61 07 08 08 19 00 00 00 00 00 00 00 00  ?.Ta............
	0x0020 00 00 00 00 00 00 00 00 00 00 00 00 00 00 00 00  ................
	0x0030 00 00 00 00 00 00 00 00 00 00 00 00 00 00 00 00  ................
	0x0040 02 00 00 00 00 00 00 00 02 00 00 00 00 00 00 00  ................
	0x0050 00 00 00 00 02 00 02 00 40 00 00 00 00 00 00 00  ........@.......
	0x0060 00 00 00 00 00 00 00 00 00 00 00 00 00 00 00 00  ................
	0x0070 00 00 00 00 00 00 00 00 00 00 00 00 00 00 00 00  ................
	0x0080 00 00 00 00 00 00 00 00 08 00 00 00 00 00 00 00  ................
	0x0090 00 00 00 00 00 00 00 00 00 00 00 00 00 00 00 00  ................
	0x00a0 00 00 00 00 00 00 00 00 00 00 00 00 00 00 00 00  ................
	rel 24+8 t=R_ADDR type:.eqfunc.main.T+0
	rel 32+8 t=R_ADDR runtime.gcbits.0200000000000000+0
	rel 40+4 t=R_ADDROFF type:.namedata.*main.T.+0
	rel 44+4 t=R_ADDROFF type:*main.T+0
	rel 48+8 t=R_ADDR type:.importpath.<unlinkable>.+0
	rel 56+8 t=R_ADDR type:main.T+96
	rel 80+4 t=R_ADDROFF type:.importpath.<unlinkable>.+0
	rel 96+8 t=R_ADDR type:.namedata.n-+0
	rel 104+8 t=R_ADDR type:int+0
	rel 120+8 t=R_ADDR type:.namedata.s-+0
	rel 128+8 t=R_ADDR type:string+0
	rel 144+4 t=R_ADDROFF type:.namedata.M1.+0
	rel 148+4 t=R_METHODOFF type:func()+0
	rel 152+4 t=R_METHODOFF main.(*T).M1+0
	rel 156+4 t=R_METHODOFF main.T.M1+0
	rel 160+4 t=R_ADDROFF type:.namedata.M2.+0
	rel 164+4 t=R_METHODOFF type:func()+0
	rel 168+4 t=R_METHODOFF main.(*T).M2+0
	rel 172+4 t=R_METHODOFF main.T.M2+0
go:string."hello, interface" SRODATA dupok size=16
	0x0000 68 65 6c 6c 6f 2c 20 69 6e 74 65 72 66 61 63 65  hello, interface
gclocals·EaPwxsZ75yY1hHMVZLmk6g== SRODATA dupok size=9
	0x0000 01 00 00 00 02 00 00 00 00                       .........
gclocals·g2BeySu+wFnoycgXfElmcg== SRODATA dupok size=8
	0x0000 01 00 00 00 00 00 00 00                          ........
main.T.M1.arginfo1 SRODATA static dupok size=11
	0x0000 fe 00 08 fe 08 08 10 08 fd fd ff                 ...........
main.T.M1.argliveinfo SRODATA static dupok size=2
	0x0000 00 00                                            ..
main.T.M2.arginfo1 SRODATA static dupok size=11
	0x0000 fe 00 08 fe 08 08 10 08 fd fd ff                 ...........
main.T.M2.argliveinfo SRODATA static dupok size=2
	0x0000 00 00                                            ..
gclocals·ykHN0vawYuq1dUW4zEe2gA== SRODATA dupok size=8
	0x0000 03 00 00 00 00 00 00 00                          ........
gclocals·AkNoL2tlDE0VXXcCR4/jMQ== SRODATA dupok size=11
	0x0000 03 00 00 00 06 00 00 00 00 12 02                 ...........
main.main.stkobj SRODATA static size=40
	0x0000 02 00 00 00 00 00 00 00 d0 ff ff ff 18 00 00 00  ................
	0x0010 10 00 00 00 00 00 00 00 e8 ff ff ff 18 00 00 00  ................
	0x0020 10 00 00 00 00 00 00 00                          ........
	rel 20+4 t=R_ADDROFF runtime.gcbits.0200000000000000+0
	rel 36+4 t=R_ADDROFF runtime.gcbits.0200000000000000+0
gclocals·TjPuuCwdlCpTaRQGRKTrYw== SRODATA dupok size=10
	0x0000 02 00 00 00 02 00 00 00 03 00                    ..........
gclocals·J5F+7Qw7O7ve2QcWC7DpeQ== SRODATA dupok size=8
	0x0000 02 00 00 00 00 00 00 00                          ........
type:.eq.<unlinkable>.T.arginfo1 SRODATA static dupok size=5
	0x0000 00 08 08 08 ff                                   .....
type:.eq.<unlinkable>.T.argliveinfo SRODATA static dupok size=2
	0x0000 00 00                                            ..
gclocals·wgcWObbY2HYnK2SU/U22lA== SRODATA dupok size=10
	0x0000 02 00 00 00 01 00 00 00 01 00                    ..........
main.(*T).M1.arginfo1 SRODATA static dupok size=3
	0x0000 00 08 ff                                         ...
main.(*T).M1.argliveinfo SRODATA static dupok size=2
	0x0000 00 00                                            ..
main.(*T).M2.arginfo1 SRODATA static dupok size=3
	0x0000 00 08 ff                                         ...
main.(*T).M2.argliveinfo SRODATA static dupok size=2
	0x0000 00 00                                            ..
gclocals·IuErl7MOXaHVn7EZYWzfFA== SRODATA dupok size=10
	0x0000 02 00 00 00 02 00 00 00 02 00                    ..........
main.NonEmptyInterface.M1.arginfo1 SRODATA static dupok size=7
	0x0000 fe 00 08 08 08 fd ff                             .......
main.NonEmptyInterface.M1.argliveinfo SRODATA static dupok size=2
	0x0000 00 00                                            ..
main.NonEmptyInterface.M2.arginfo1 SRODATA static dupok size=7
	0x0000 fe 00 08 08 08 fd ff                             .......
main.NonEmptyInterface.M2.argliveinfo SRODATA static dupok size=2
	0x0000 00 00                                            ..
type:.eq.main.T.arginfo1 SRODATA static dupok size=5
	0x0000 00 08 08 08 ff                                   .....
type:.eq.main.T.argliveinfo SRODATA static dupok size=2
	0x0000 00 00                                            ..
